; Function Attrs: mustprogress nounwind uwtable
define void @_ZN3gmx9HelpLinksD2Ev(ptr nocapture noundef nonnull align 8 dereferenceable(8) %0) unnamed_addr #4 align 2 personality ptr @__gxx_personality_v0 {
  %2 = load ptr, ptr %0, align 8
  %.not.i = icmp eq ptr %2, null
  br i1 %.not.i, label %_ZNSt10unique_ptrIN3gmx9HelpLinks4ImplESt14default_deleteIS2_EED2Ev.exit, label %3

3:                                                ; preds = %1
  %4 = load ptr, ptr %2, align 8
  %5 = getelementptr inbounds i8, ptr %2, i64 8
  %6 = load ptr, ptr %5, align 8
  %.not4.i.i.i.i.i.i.i = icmp eq ptr %4, %6
  br i1 %.not4.i.i.i.i.i.i.i, label %_ZSt8_DestroyIPN3gmx9HelpLinks4Impl8LinkItemES3_EvT_S5_RSaIT0_E.exit.i.i.i.i, label %.lr.ph.i.i.i.i.i.i.i

.lr.ph.i.i.i.i.i.i.i:                             ; preds = %3, %.lr.ph.i.i.i.i.i.i.i
  %.05.i.i.i.i.i.i.i = phi ptr [ %8, %.lr.ph.i.i.i.i.i.i.i ], [ %4, %3 ]
  %7 = getelementptr inbounds i8, ptr %.05.i.i.i.i.i.i.i, i64 32
  tail call void @_ZNSt7__cxx1112basic_stringIcSt11char_traitsIcESaIcEED1Ev(ptr noundef nonnull align 8 dereferenceable(32) %7) #17
  tail call void @_ZNSt7__cxx1112basic_stringIcSt11char_traitsIcESaIcEED1Ev(ptr noundef nonnull align 8 dereferenceable(32) %.05.i.i.i.i.i.i.i) #17
  %8 = getelementptr inbounds i8, ptr %.05.i.i.i.i.i.i.i, i64 64
  %.not.i.i.i.i.i.i.i = icmp eq ptr %8, %6
  br i1 %.not.i.i.i.i.i.i.i, label %_ZSt8_DestroyIPN3gmx9HelpLinks4Impl8LinkItemES3_EvT_S5_RSaIT0_E.exitthread-pre-split.i.i.i.i, label %.lr.ph.i.i.i.i.i.i.i, !llvm.loop !5

_ZSt8_DestroyIPN3gmx9HelpLinks4Impl8LinkItemES3_EvT_S5_RSaIT0_E.exitthread-pre-split.i.i.i.i: ; preds = %.lr.ph.i.i.i.i.i.i.i
  %.pr.i.i.i.i = load ptr, ptr %2, align 8
  br label %_ZSt8_DestroyIPN3gmx9HelpLinks4Impl8LinkItemES3_EvT_S5_RSaIT0_E.exit.i.i.i.i

_ZSt8_DestroyIPN3gmx9HelpLinks4Impl8LinkItemES3_EvT_S5_RSaIT0_E.exit.i.i.i.i: ; preds = %_ZSt8_DestroyIPN3gmx9HelpLinks4Impl8LinkItemES3_EvT_S5_RSaIT0_E.exitthread-pre-split.i.i.i.i, %3
  %9 = phi ptr [ %.pr.i.i.i.i, %_ZSt8_DestroyIPN3gmx9HelpLinks4Impl8LinkItemES3_EvT_S5_RSaIT0_E.exitthread-pre-split.i.i.i.i ], [ %4, %3 ]
  %.not.i.i.i.i.i.i = icmp eq ptr %9, null
  br i1 %.not.i.i.i.i.i.i, label %_ZNKSt14default_deleteIN3gmx9HelpLinks4ImplEEclEPS2_.exit.i, label %10

10:                                               ; preds = %_ZSt8_DestroyIPN3gmx9HelpLinks4Impl8LinkItemES3_EvT_S5_RSaIT0_E.exit.i.i.i.i
  tail call void @_ZdlPv(ptr noundef nonnull %9) #19
  br label %_ZNKSt14default_deleteIN3gmx9HelpLinks4ImplEEclEPS2_.exit.i

_ZNKSt14default_deleteIN3gmx9HelpLinks4ImplEEclEPS2_.exit.i: ; preds = %10, %_ZSt8_DestroyIPN3gmx9HelpLinks4Impl8LinkItemES3_EvT_S5_RSaIT0_E.exit.i.i.i.i
  tail call void @_ZdlPv(ptr noundef nonnull %2) #19
  br label %_ZNSt10unique_ptrIN3gmx9HelpLinks4ImplESt14default_deleteIS2_EED2Ev.exit

_ZNSt10unique_ptrIN3gmx9HelpLinks4ImplESt14default_deleteIS2_EED2Ev.exit: ; preds = %1, %_ZNKSt14default_deleteIN3gmx9HelpLinks4ImplEEclEPS2_.exit.i
  store ptr null, ptr %0, align 8
  ret void
}